target datalayout = "e-m:e-p270:32:32-p271:32:32-p272:64:64-i64:64-i128:128-f80:128-n8:16:32:64-S128"
target triple = "x86_64-pc-linux-gnu"

; Function Attrs: mustprogress uwtable
define void @_ZN3vcg10trackutils15DrawPlaneHandleEv() #3 {
  %1 = alloca float, align 4
  %2 = alloca float, align 4
  store float 1.000000e+00, ptr %1, align 4
  %3 = load float, ptr %1, align 4
  %4 = fdiv float %3, 1.000000e+01
  store float %4, ptr %2, align 4
  call void @glBegin(i32 noundef 3)
  %5 = load float, ptr %1, align 4
  %6 = load float, ptr %2, align 4
  %7 = fadd float %5, %6
  %8 = load float, ptr %1, align 4
  call void @glVertex3f(float noundef %7, float noundef %8, float noundef 0.000000e+00)
  %9 = load float, ptr %1, align 4
  %10 = load float, ptr %1, align 4
  %11 = load float, ptr %2, align 4
  %12 = fadd float %10, %11
  call void @glVertex3f(float noundef %9, float noundef %12, float noundef 0.000000e+00)
  %13 = load float, ptr %1, align 4
  %14 = load float, ptr %2, align 4
  %15 = fsub float %13, %14
  %16 = load float, ptr %1, align 4
  call void @glVertex3f(float noundef %15, float noundef %16, float noundef 0.000000e+00)
  %17 = load float, ptr %1, align 4
  %18 = load float, ptr %1, align 4
  %19 = load float, ptr %2, align 4
  %20 = fsub float %18, %19
  call void @glVertex3f(float noundef %17, float noundef %20, float noundef 0.000000e+00)
  %21 = load float, ptr %1, align 4
  %22 = load float, ptr %2, align 4
  %23 = fadd float %21, %22
  %24 = load float, ptr %1, align 4
  call void @glVertex3f(float noundef %23, float noundef %24, float noundef 0.000000e+00)
  call void @glEnd()
  call void @glBegin(i32 noundef 3)
  %25 = load float, ptr %1, align 4
  %26 = fneg float %25
  %27 = load float, ptr %2, align 4
  %28 = fadd float %26, %27
  %29 = load float, ptr %1, align 4
  %30 = fneg float %29
  call void @glVertex3f(float noundef %28, float noundef %30, float noundef 0.000000e+00)
  %31 = load float, ptr %1, align 4
  %32 = fneg float %31
  %33 = load float, ptr %1, align 4
  %34 = fneg float %33
  %35 = load float, ptr %2, align 4
  %36 = fadd float %34, %35
  call void @glVertex3f(float noundef %32, float noundef %36, float noundef 0.000000e+00)
  %37 = load float, ptr %1, align 4
  %38 = fneg float %37
  %39 = load float, ptr %2, align 4
  %40 = fsub float %38, %39
  %41 = load float, ptr %1, align 4
  %42 = fneg float %41
  call void @glVertex3f(float noundef %40, float noundef %42, float noundef 0.000000e+00)
  %43 = load float, ptr %1, align 4
  %44 = fneg float %43
  %45 = load float, ptr %1, align 4
  %46 = fneg float %45
  %47 = load float, ptr %2, align 4
  %48 = fsub float %46, %47
  call void @glVertex3f(float noundef %44, float noundef %48, float noundef 0.000000e+00)
  %49 = load float, ptr %1, align 4
  %50 = fneg float %49
  %51 = load float, ptr %2, align 4
  %52 = fadd float %50, %51
  %53 = load float, ptr %1, align 4
  %54 = fneg float %53
  call void @glVertex3f(float noundef %52, float noundef %54, float noundef 0.000000e+00)
  call void @glEnd()
  ret void
}