; Function Attrs: mustprogress uwtable
define void @_ZN3vcg10trackutils15DrawPlaneHandleEv() local_unnamed_addr #4 {
  tail call void @glBegin(i32 noundef 3)
  tail call void @glVertex3f(float noundef 0x3FF19999A0000000, float noundef 1.000000e+00, float noundef 0.000000e+00)
  tail call void @glVertex3f(float noundef 1.000000e+00, float noundef 0x3FF19999A0000000, float noundef 0.000000e+00)
  tail call void @glVertex3f(float noundef 0x3FECCCCCC0000000, float noundef 1.000000e+00, float noundef 0.000000e+00)
  tail call void @glVertex3f(float noundef 1.000000e+00, float noundef 0x3FECCCCCC0000000, float noundef 0.000000e+00)
  tail call void @glVertex3f(float noundef 0x3FF19999A0000000, float noundef 1.000000e+00, float noundef 0.000000e+00)
  tail call void @glEnd()
  tail call void @glBegin(i32 noundef 3)
  tail call void @glVertex3f(float noundef 0xBFECCCCCC0000000, float noundef -1.000000e+00, float noundef 0.000000e+00)
  tail call void @glVertex3f(float noundef -1.000000e+00, float noundef 0xBFECCCCCC0000000, float noundef 0.000000e+00)
  tail call void @glVertex3f(float noundef 0xBFF19999A0000000, float noundef -1.000000e+00, float noundef 0.000000e+00)
  tail call void @glVertex3f(float noundef -1.000000e+00, float noundef 0xBFF19999A0000000, float noundef 0.000000e+00)
  tail call void @glVertex3f(float noundef 0xBFECCCCCC0000000, float noundef -1.000000e+00, float noundef 0.000000e+00)
  tail call void @glEnd()
  ret void
}